; Function Attrs: cold inlinehint nofree nounwind uwtable
define internal fastcc void @hwloc_utils_parsing_flag_error(ptr noundef nonnull readonly captures(none) %0) unnamed_addr #18 {
  %2 = load ptr, ptr @stderr, align 8, !tbaa !9
  %3 = tail call i32 (ptr, ptr, ...) @fprintf(ptr noundef %2, ptr noundef nonnull @.str.142, ptr noundef nonnull @.str.136) #27
  br label %4

4:                                                ; preds = %1, %4
  %indvars.iv = phi i64 [ 0, %1 ], [ %indvars.iv.next, %4 ]
  %5 = load ptr, ptr @stderr, align 8, !tbaa !9
  %6 = tail call i64 @fwrite(ptr nonnull @.str.143, i64 2, i64 1, ptr %5) #30
  %7 = load ptr, ptr @stderr, align 8, !tbaa !9
  %8 = getelementptr inbounds nuw %struct.hwloc_utils_parsing_flag, ptr %0, i64 %indvars.iv, i32 1
  %9 = load ptr, ptr %8, align 8, !tbaa !18
  %fputs = tail call i32 @fputs(ptr %9, ptr %7) #30
  %10 = load ptr, ptr @stderr, align 8, !tbaa !9
  %fputc = tail call i32 @fputc(i32 10, ptr %10)
  %indvars.iv.next = add nuw nsw i64 %indvars.iv, 1
  %exitcond.not = icmp eq i64 %indvars.iv.next, 5
  br i1 %exitcond.not, label %11, label %4, !llvm.loop !78

11:                                               ; preds = %4
  ret void
}